target datalayout = "e-m:e-p270:32:32-p271:32:32-p272:64:64-i64:64-i128:128-f80:128-n8:16:32:64-S128"
target triple = "x86_64-pc-linux-gnu"

%struct.strvec = type { ptr, i64, i64 }
%struct.replay_opts = type { i32, i32, i32, i32, i32, i32, i32, i32, i32, i32, i32, i32, i32, i32, i32, i32, i32, i32, ptr, i32, i32, ptr, ptr, %struct.strvec, ptr, %struct.object_id, i32, ptr, ptr }
%struct.object_id = type { [32 x i8], i32 }
%struct.child_process = type { %struct.strvec, %struct.strvec, i32, i32, i64, ptr, ptr, i32, i32, i32, ptr, i16, ptr }

@.str.46 = private unnamed_addr constant [1 x i8] zeroinitializer, align 1
@.str.51 = private unnamed_addr constant [17 x i8] c"CHERRY_PICK_HEAD\00", align 1
@.str.53 = private unnamed_addr constant [12 x i8] c"REVERT_HEAD\00", align 1
@git_gettext_enabled = external global i32, align 4
@.str.173 = private unnamed_addr constant [37 x i8] c"no cherry-pick or revert in progress\00", align 1
@.str.269 = private unnamed_addr constant [7 x i8] c"commit\00", align 1
@.str.274 = private unnamed_addr constant [16 x i8] c"--cleanup=strip\00", align 1
@.str.284 = private unnamed_addr constant [10 x i8] c"--no-edit\00", align 1

; Function Attrs: inlinehint nounwind uwtable
define internal i32 @const_error() #1 {
  ret i32 -1
}

; Function Attrs: inlinehint nounwind uwtable
define internal ptr @_(ptr noundef %0) #1 {
  %2 = alloca ptr, align 8
  %3 = alloca ptr, align 8
  store ptr %0, ptr %3, align 8, !tbaa !4
  %4 = load ptr, ptr %3, align 8, !tbaa !4
  %5 = load i8, ptr %4, align 1, !tbaa !30
  %6 = icmp ne i8 %5, 0
  br i1 %6, label %8, label %7

7:                                                ; preds = %1
  store ptr @.str.46, ptr %2, align 8
  br label %16

8:                                                ; preds = %1
  %9 = load i32, ptr @git_gettext_enabled, align 4, !tbaa !29
  %10 = icmp ne i32 %9, 0
  br i1 %10, label %13, label %11

11:                                               ; preds = %8
  %12 = load ptr, ptr %3, align 8, !tbaa !4
  store ptr %12, ptr %2, align 8
  br label %16

13:                                               ; preds = %8
  %14 = load ptr, ptr %3, align 8, !tbaa !4
  %15 = call ptr @dcgettext(ptr noundef null, ptr noundef %14, i32 noundef 5) #11
  store ptr %15, ptr %2, align 8
  br label %16

16:                                               ; preds = %13, %11, %7
  %17 = load ptr, ptr %2, align 8
  ret ptr %17
}

; Function Attrs: nounwind uwtable
define internal i32 @continue_single_pick(ptr noundef %0, ptr noundef %1) #0 {
  %3 = alloca i32, align 4
  %4 = alloca ptr, align 8
  %5 = alloca ptr, align 8
  %6 = alloca %struct.child_process, align 8
  %7 = alloca i32, align 4
  store ptr %0, ptr %4, align 8, !tbaa !9
  store ptr %1, ptr %5, align 8, !tbaa !13
  call void @llvm.lifetime.start.p0(i64 120, ptr %6) #11
  call void @llvm.memcpy.p0.p0.i64(ptr align 8 %6, ptr align 8 @__const.continue_single_pick.cmd, i64 120, i1 false)
  %8 = load ptr, ptr %4, align 8, !tbaa !9
  %9 = call ptr @get_main_ref_store(ptr noundef %8)
  %10 = call i32 @refs_ref_exists(ptr noundef %9, ptr noundef @.str.51)
  %11 = icmp ne i32 %10, 0
  br i1 %11, label %21, label %12

12:                                               ; preds = %2
  %13 = load ptr, ptr %4, align 8, !tbaa !9
  %14 = call ptr @get_main_ref_store(ptr noundef %13)
  %15 = call i32 @refs_ref_exists(ptr noundef %14, ptr noundef @.str.53)
  %16 = icmp ne i32 %15, 0
  br i1 %16, label %21, label %17

17:                                               ; preds = %12
  %18 = call ptr @_(ptr noundef @.str.173)
  %19 = call i32 (ptr, ...) @error(ptr noundef %18)
  %20 = call i32 @const_error()
  store i32 %20, ptr %3, align 4
  store i32 1, ptr %7, align 4
  br label %44

21:                                               ; preds = %12, %2
  %22 = getelementptr inbounds nuw %struct.child_process, ptr %6, i32 0, i32 11
  %23 = load i16, ptr %22, align 8
  %24 = and i16 %23, -9
  %25 = or i16 %24, 8
  store i16 %25, ptr %22, align 8
  %26 = getelementptr inbounds nuw %struct.child_process, ptr %6, i32 0, i32 0
  %27 = call ptr @strvec_push(ptr noundef %26, ptr noundef @.str.269)
  %28 = load ptr, ptr %5, align 8, !tbaa !13
  %29 = getelementptr inbounds nuw %struct.replay_opts, ptr %28, i32 0, i32 1
  %30 = load i32, ptr %29, align 4, !tbaa !165
  %31 = icmp ne i32 %30, 0
  br i1 %31, label %32, label %40

32:                                               ; preds = %21
  %33 = load ptr, ptr %5, align 8, !tbaa !13
  %34 = getelementptr inbounds nuw %struct.replay_opts, ptr %33, i32 0, i32 1
  %35 = load i32, ptr %34, align 4, !tbaa !165
  %36 = icmp slt i32 %35, 0
  br i1 %36, label %37, label %42

37:                                               ; preds = %32
  %38 = call i32 @isatty(i32 noundef 0) #11
  %39 = icmp ne i32 %38, 0
  br i1 %39, label %42, label %40

40:                                               ; preds = %37, %21
  %41 = getelementptr inbounds nuw %struct.child_process, ptr %6, i32 0, i32 0
  call void (ptr, ...) @strvec_pushl(ptr noundef %41, ptr noundef @.str.284, ptr noundef @.str.274, ptr noundef null)
  br label %42

42:                                               ; preds = %40, %37, %32
  %43 = call i32 @run_command(ptr noundef %6)
  store i32 %43, ptr %3, align 4
  store i32 1, ptr %7, align 4
  br label %44

44:                                               ; preds = %42, %17
  call void @llvm.lifetime.end.p0(i64 120, ptr %6) #11
  %45 = load i32, ptr %3, align 4
  ret i32 %45
}