; Function Attrs: nounwind uwtable
define internal fastcc i32 @continue_single_pick(ptr noundef %0, ptr noundef readonly captures(none) %1) unnamed_addr #0 {
  %3 = alloca %struct.child_process, align 8
  call void @llvm.lifetime.start.p0(i64 120, ptr nonnull %3) #20
  call void @llvm.memcpy.p0.p0.i64(ptr noundef nonnull align 8 dereferenceable(120) %3, ptr noundef nonnull align 8 dereferenceable(120) @__const.do_merge.cmd, i64 120, i1 false)
  %4 = tail call ptr @get_main_ref_store(ptr noundef %0) #20
  %5 = tail call i32 @refs_ref_exists(ptr noundef %4, ptr noundef nonnull @.str.51) #20
  %.not = icmp eq i32 %5, 0
  br i1 %.not, label %6, label %14

6:                                                ; preds = %2
  %7 = tail call ptr @get_main_ref_store(ptr noundef %0) #20
  %8 = tail call i32 @refs_ref_exists(ptr noundef %7, ptr noundef nonnull @.str.53) #20
  %.not5 = icmp eq i32 %8, 0
  br i1 %.not5, label %9, label %14

9:                                                ; preds = %6
  %10 = load i32, ptr @git_gettext_enabled, align 4, !tbaa !21
  %.not4.i = icmp eq i32 %10, 0
  br i1 %.not4.i, label %_.exit, label %11

11:                                               ; preds = %9
  %12 = tail call ptr @dcgettext(ptr noundef null, ptr noundef nonnull @.str.173, i32 noundef 5) #20
  br label %_.exit

_.exit:                                           ; preds = %9, %11
  %.0.i = phi ptr [ %12, %11 ], [ @.str.173, %9 ]
  %13 = tail call i32 (ptr, ...) @error(ptr noundef %.0.i) #20
  br label %26

14:                                               ; preds = %6, %2
  %15 = getelementptr inbounds nuw i8, ptr %3, i64 104
  store i16 8, ptr %15, align 8
  %16 = call ptr @strvec_push(ptr noundef nonnull %3, ptr noundef nonnull @.str.269) #20
  %17 = getelementptr inbounds nuw i8, ptr %1, i64 4
  %18 = load i32, ptr %17, align 4, !tbaa !138
  %.not6 = icmp eq i32 %18, 0
  br i1 %.not6, label %23, label %19

19:                                               ; preds = %14
  %20 = icmp slt i32 %18, 0
  br i1 %20, label %21, label %24

21:                                               ; preds = %19
  %22 = call i32 @isatty(i32 noundef 0) #20
  %.not7 = icmp eq i32 %22, 0
  br i1 %.not7, label %23, label %24

23:                                               ; preds = %21, %14
  call void (ptr, ...) @strvec_pushl(ptr noundef nonnull %3, ptr noundef nonnull @.str.284, ptr noundef nonnull @.str.274, ptr noundef null) #20
  br label %24

24:                                               ; preds = %23, %21, %19
  %25 = call i32 @run_command(ptr noundef nonnull %3) #20
  br label %26

26:                                               ; preds = %24, %_.exit
  %.0 = phi i32 [ %25, %24 ], [ -1, %_.exit ]
  call void @llvm.lifetime.end.p0(i64 120, ptr nonnull %3) #20
  ret i32 %.0
}